target datalayout = "e-m:e-p270:32:32-p271:32:32-p272:64:64-i64:64-i128:128-f80:128-n8:16:32:64-S128"
target triple = "x86_64-pc-linux-gnu"

%struct.mbedtls_context = type { ptr, %struct.mbedtls_net_context }
%struct.mbedtls_net_context = type { i32 }

; Function Attrs: nounwind uwtable
define internal ptr @mbedtls_context_init(ptr noundef %0) #0 {
  %2 = alloca ptr, align 8
  %3 = alloca ptr, align 8
  store ptr %0, ptr %2, align 8
  call void @llvm.lifetime.start.p0(i64 8, ptr %3) #3
  %4 = call ptr @event_mm_malloc_(i64 noundef 16)
  store ptr %4, ptr %3, align 8
  %5 = load ptr, ptr %3, align 8
  %6 = icmp ne ptr %5, null
  br i1 %6, label %7, label %14

7:                                                ; preds = %1
  %8 = load ptr, ptr %2, align 8
  %9 = load ptr, ptr %3, align 8
  %10 = getelementptr inbounds nuw %struct.mbedtls_context, ptr %9, i32 0, i32 0
  store ptr %8, ptr %10, align 8
  %11 = load ptr, ptr %3, align 8
  %12 = getelementptr inbounds nuw %struct.mbedtls_context, ptr %11, i32 0, i32 1
  %13 = getelementptr inbounds nuw %struct.mbedtls_net_context, ptr %12, i32 0, i32 0
  store i32 -1, ptr %13, align 8
  br label %14

14:                                               ; preds = %7, %1
  %15 = load ptr, ptr %3, align 8
  call void @llvm.lifetime.end.p0(i64 8, ptr %3) #3
  ret ptr %15
}