; Function Attrs: nounwind uwtable
define internal ptr @mbedtls_context_init(ptr noundef %0) #0 {
  %2 = tail call ptr @event_mm_malloc_(i64 noundef 16) #5
  %.not = icmp eq ptr %2, null
  br i1 %.not, label %5, label %3

3:                                                ; preds = %1
  store ptr %0, ptr %2, align 8
  %4 = getelementptr inbounds nuw i8, ptr %2, i64 8
  store i32 -1, ptr %4, align 8
  br label %5

5:                                                ; preds = %3, %1
  ret ptr %2
}